; Function Attrs: mustprogress uwtable
define noundef nonnull align 8 dereferenceable(8) ptr @_ZN6gmxapi6StatusaSEb(ptr noundef nonnull returned align 8 dereferenceable(8) %0, i1 noundef zeroext %1) local_unnamed_addr #0 align 2 personality ptr @__gxx_personality_v0 {
  %3 = zext i1 %1 to i8
  %4 = tail call noalias noundef nonnull dereferenceable(1) ptr @_Znwm(i64 noundef 1) #7, !noalias !14
  store i8 %3, ptr %4, align 1, !noalias !14
  %5 = load ptr, ptr %0, align 8
  store ptr %4, ptr %0, align 8
  %.not.i.i.i.i = icmp eq ptr %5, null
  br i1 %.not.i.i.i.i, label %_ZNSt10unique_ptrIN6gmxapi6Status4ImplESt14default_deleteIS2_EED2Ev.exit, label %_ZNKSt14default_deleteIN6gmxapi6Status4ImplEEclEPS2_.exit.i.i.i.i

_ZNKSt14default_deleteIN6gmxapi6Status4ImplEEclEPS2_.exit.i.i.i.i: ; preds = %2
  tail call void @_ZdlPv(ptr noundef nonnull %5) #8
  br label %_ZNSt10unique_ptrIN6gmxapi6Status4ImplESt14default_deleteIS2_EED2Ev.exit

_ZNSt10unique_ptrIN6gmxapi6Status4ImplESt14default_deleteIS2_EED2Ev.exit: ; preds = %_ZNKSt14default_deleteIN6gmxapi6Status4ImplEEclEPS2_.exit.i.i.i.i, %2
  ret ptr %0
}